target datalayout = "e-m:e-p270:32:32-p271:32:32-p272:64:64-i64:64-i128:128-f80:128-n8:16:32:64-S128"
target triple = "x86_64-pc-linux-gnu"

%"class.std::vector" = type { %"struct.std::_Vector_base" }
%"struct.std::_Vector_base" = type { %"struct.std::_Vector_base<std::__cxx11::basic_string<char>, std::allocator<std::__cxx11::basic_string<char>>>::_Vector_impl" }
%"struct.std::_Vector_base<std::__cxx11::basic_string<char>, std::allocator<std::__cxx11::basic_string<char>>>::_Vector_impl" = type { %"struct.std::_Vector_base<std::__cxx11::basic_string<char>, std::allocator<std::__cxx11::basic_string<char>>>::_Vector_impl_data" }
%"struct.std::_Vector_base<std::__cxx11::basic_string<char>, std::allocator<std::__cxx11::basic_string<char>>>::_Vector_impl_data" = type { ptr, ptr, ptr }
%"class.colvar::cvc" = type { %class.colvarparse, %class.colvardeps, %"class.std::__cxx11::basic_string", %"class.std::__cxx11::basic_string", double, i32, double, double, %"class.std::vector.54", i8, %"class.std::vector", %class.colvarvalue, %class.colvarvalue, %class.colvarvalue, %class.colvarvalue, %class.colvarvalue, %class.colvarvalue, double }
%class.colvarparse = type { %class.colvarparams, %"class.std::__cxx11::basic_string", %"class.std::__cxx11::basic_string", %"class.std::__cxx11::list", %"class.std::map.34", %"class.std::__cxx11::list.39", %"class.std::__cxx11::list.39", %"class.std::__cxx11::basic_string" }
%class.colvarparams = type { ptr, %"class.std::map", %"class.std::map.23" }
%"class.std::map" = type { %"class.std::_Rb_tree" }
%"class.std::_Rb_tree" = type { %"struct.std::_Rb_tree<std::__cxx11::basic_string<char>, std::pair<const std::__cxx11::basic_string<char>, const void *>, std::_Select1st<std::pair<const std::__cxx11::basic_string<char>, const void *>>, std::less<std::__cxx11::basic_string<char>>>::_Rb_tree_impl" }
%"struct.std::_Rb_tree<std::__cxx11::basic_string<char>, std::pair<const std::__cxx11::basic_string<char>, const void *>, std::_Select1st<std::pair<const std::__cxx11::basic_string<char>, const void *>>, std::less<std::__cxx11::basic_string<char>>>::_Rb_tree_impl" = type { [8 x i8], %"struct.std::_Rb_tree_header" }
%"struct.std::_Rb_tree_header" = type { %"struct.std::_Rb_tree_node_base", i64 }
%"struct.std::_Rb_tree_node_base" = type { i32, ptr, ptr, ptr }
%"class.std::map.23" = type { %"class.std::_Rb_tree.24" }
%"class.std::_Rb_tree.24" = type { %"struct.std::_Rb_tree<std::__cxx11::basic_string<char>, std::pair<const std::__cxx11::basic_string<char>, const colvarvalue *>, std::_Select1st<std::pair<const std::__cxx11::basic_string<char>, const colvarvalue *>>, std::less<std::__cxx11::basic_string<char>>>::_Rb_tree_impl" }
%"struct.std::_Rb_tree<std::__cxx11::basic_string<char>, std::pair<const std::__cxx11::basic_string<char>, const colvarvalue *>, std::_Select1st<std::pair<const std::__cxx11::basic_string<char>, const colvarvalue *>>, std::less<std::__cxx11::basic_string<char>>>::_Rb_tree_impl" = type { [8 x i8], %"struct.std::_Rb_tree_header" }
%"class.std::__cxx11::list" = type { %"class.std::__cxx11::_List_base" }
%"class.std::__cxx11::_List_base" = type { %"struct.std::__cxx11::_List_base<std::__cxx11::basic_string<char>, std::allocator<std::__cxx11::basic_string<char>>>::_List_impl" }
%"struct.std::__cxx11::_List_base<std::__cxx11::basic_string<char>, std::allocator<std::__cxx11::basic_string<char>>>::_List_impl" = type { %"struct.std::__detail::_List_node_header" }
%"struct.std::__detail::_List_node_header" = type { %"struct.std::__detail::_List_node_base", i64 }
%"struct.std::__detail::_List_node_base" = type { ptr, ptr }
%"class.std::map.34" = type { %"class.std::_Rb_tree.35" }
%"class.std::_Rb_tree.35" = type { %"struct.std::_Rb_tree<std::__cxx11::basic_string<char>, std::pair<const std::__cxx11::basic_string<char>, colvarparse::key_set_mode>, std::_Select1st<std::pair<const std::__cxx11::basic_string<char>, colvarparse::key_set_mode>>, std::less<std::__cxx11::basic_string<char>>>::_Rb_tree_impl" }
%"struct.std::_Rb_tree<std::__cxx11::basic_string<char>, std::pair<const std::__cxx11::basic_string<char>, colvarparse::key_set_mode>, std::_Select1st<std::pair<const std::__cxx11::basic_string<char>, colvarparse::key_set_mode>>, std::less<std::__cxx11::basic_string<char>>>::_Rb_tree_impl" = type { [8 x i8], %"struct.std::_Rb_tree_header" }
%"class.std::__cxx11::list.39" = type { %"class.std::__cxx11::_List_base.40" }
%"class.std::__cxx11::_List_base.40" = type { %"struct.std::__cxx11::_List_base<unsigned long, std::allocator<unsigned long>>::_List_impl" }
%"struct.std::__cxx11::_List_base<unsigned long, std::allocator<unsigned long>>::_List_impl" = type { %"struct.std::__detail::_List_node_header" }
%class.colvardeps = type { ptr, %"class.std::__cxx11::basic_string", i32, %"class.std::vector.44", %"class.std::vector.49", %"class.std::vector.49" }
%"class.std::vector.44" = type { %"struct.std::_Vector_base.45" }
%"struct.std::_Vector_base.45" = type { %"struct.std::_Vector_base<colvardeps::feature_state, std::allocator<colvardeps::feature_state>>::_Vector_impl" }
%"struct.std::_Vector_base<colvardeps::feature_state, std::allocator<colvardeps::feature_state>>::_Vector_impl" = type { %"struct.std::_Vector_base<colvardeps::feature_state, std::allocator<colvardeps::feature_state>>::_Vector_impl_data" }
%"struct.std::_Vector_base<colvardeps::feature_state, std::allocator<colvardeps::feature_state>>::_Vector_impl_data" = type { ptr, ptr, ptr }
%"class.std::vector.49" = type { %"struct.std::_Vector_base.50" }
%"struct.std::_Vector_base.50" = type { %"struct.std::_Vector_base<colvardeps *, std::allocator<colvardeps *>>::_Vector_impl" }
%"struct.std::_Vector_base<colvardeps *, std::allocator<colvardeps *>>::_Vector_impl" = type { %"struct.std::_Vector_base<colvardeps *, std::allocator<colvardeps *>>::_Vector_impl_data" }
%"struct.std::_Vector_base<colvardeps *, std::allocator<colvardeps *>>::_Vector_impl_data" = type { ptr, ptr, ptr }
%"class.std::__cxx11::basic_string" = type { %"struct.std::__cxx11::basic_string<char>::_Alloc_hider", i64, %union.anon }
%"struct.std::__cxx11::basic_string<char>::_Alloc_hider" = type { ptr }
%union.anon = type { i64, [8 x i8] }
%"class.std::vector.54" = type { %"struct.std::_Vector_base.55" }
%"struct.std::_Vector_base.55" = type { %"struct.std::_Vector_base<colvarmodule::atom_group *, std::allocator<colvarmodule::atom_group *>>::_Vector_impl" }
%"struct.std::_Vector_base<colvarmodule::atom_group *, std::allocator<colvarmodule::atom_group *>>::_Vector_impl" = type { %"struct.std::_Vector_base<colvarmodule::atom_group *, std::allocator<colvarmodule::atom_group *>>::_Vector_impl_data" }
%"struct.std::_Vector_base<colvarmodule::atom_group *, std::allocator<colvarmodule::atom_group *>>::_Vector_impl_data" = type { ptr, ptr, ptr }
%class.colvarvalue = type { i32, double, %"class.colvarmodule::rvector", %"class.colvarmodule::quaternion", %"class.colvarmodule::vector1d", %"class.std::vector.10", %"class.std::vector.15", %"class.std::vector.15" }
%"class.colvarmodule::rvector" = type { double, double, double }
%"class.colvarmodule::quaternion" = type { double, double, double, double }
%"class.colvarmodule::vector1d" = type { %"class.std::vector.5" }
%"class.std::vector.5" = type { %"struct.std::_Vector_base.6" }
%"struct.std::_Vector_base.6" = type { %"struct.std::_Vector_base<double, std::allocator<double>>::_Vector_impl" }
%"struct.std::_Vector_base<double, std::allocator<double>>::_Vector_impl" = type { %"struct.std::_Vector_base<double, std::allocator<double>>::_Vector_impl_data" }
%"struct.std::_Vector_base<double, std::allocator<double>>::_Vector_impl_data" = type { ptr, ptr, ptr }
%"class.std::vector.10" = type { %"struct.std::_Vector_base.11" }
%"struct.std::_Vector_base.11" = type { %"struct.std::_Vector_base<colvarvalue::Type, std::allocator<colvarvalue::Type>>::_Vector_impl" }
%"struct.std::_Vector_base<colvarvalue::Type, std::allocator<colvarvalue::Type>>::_Vector_impl" = type { %"struct.std::_Vector_base<colvarvalue::Type, std::allocator<colvarvalue::Type>>::_Vector_impl_data" }
%"struct.std::_Vector_base<colvarvalue::Type, std::allocator<colvarvalue::Type>>::_Vector_impl_data" = type { ptr, ptr, ptr }
%"class.std::vector.15" = type { %"struct.std::_Vector_base.16" }
%"struct.std::_Vector_base.16" = type { %"struct.std::_Vector_base<int, std::allocator<int>>::_Vector_impl" }
%"struct.std::_Vector_base<int, std::allocator<int>>::_Vector_impl" = type { %"struct.std::_Vector_base<int, std::allocator<int>>::_Vector_impl_data" }
%"struct.std::_Vector_base<int, std::allocator<int>>::_Vector_impl_data" = type { ptr, ptr, ptr }

; Function Attrs: inlinehint mustprogress uwtable
define linkonce_odr noundef nonnull align 8 dereferenceable(24) ptr @_ZN12colvarmodule8vector1dIdEaSERKS1_(ptr noundef nonnull align 8 dereferenceable(24) %0, ptr noundef nonnull align 8 dereferenceable(24) %1) #6 comdat align 2 {
  %3 = alloca ptr, align 8
  %4 = alloca ptr, align 8
  store ptr %0, ptr %3, align 8, !tbaa !224
  store ptr %1, ptr %4, align 8, !tbaa !224
  %5 = load ptr, ptr %3, align 8
  %6 = getelementptr inbounds nuw %"class.colvarmodule::vector1d", ptr %5, i32 0, i32 0
  %7 = load ptr, ptr %4, align 8, !tbaa !224
  %8 = getelementptr inbounds nuw %"class.colvarmodule::vector1d", ptr %7, i32 0, i32 0
  %9 = call noundef nonnull align 8 dereferenceable(24) ptr @_ZNSt6vectorIdSaIdEEaSERKS1_(ptr noundef nonnull align 8 dereferenceable(24) %6, ptr noundef nonnull align 8 dereferenceable(24) %8)
  ret ptr %5
}

; Function Attrs: inlinehint mustprogress nounwind uwtable
define linkonce_odr noundef i32 @_ZNK11colvarvalue4typeEv(ptr noundef nonnull align 8 dereferenceable(168) %0) #8 comdat align 2 {
  %2 = alloca ptr, align 8
  store ptr %0, ptr %2, align 8, !tbaa !218
  %3 = load ptr, ptr %2, align 8
  %4 = getelementptr inbounds nuw %class.colvarvalue, ptr %3, i32 0, i32 0
  %5 = load i32, ptr %4, align 8, !tbaa !221
  ret i32 %5
}

; Function Attrs: inlinehint mustprogress uwtable
define linkonce_odr noundef nonnull align 8 dereferenceable(168) ptr @_ZN11colvarvalueaSERKS_(ptr noundef nonnull align 8 dereferenceable(168) %0, ptr noundef nonnull align 8 dereferenceable(168) %1) #6 comdat align 2 {
  %3 = alloca ptr, align 8
  %4 = alloca ptr, align 8
  %5 = alloca i32, align 4
  %6 = alloca i32, align 4
  store ptr %0, ptr %3, align 8, !tbaa !218
  store ptr %1, ptr %4, align 8, !tbaa !218
  %7 = load ptr, ptr %3, align 8
  call void @llvm.lifetime.start.p0(i64 4, ptr %5) #17
  %8 = call noundef i32 @_ZNK11colvarvalue4typeEv(ptr noundef nonnull align 8 dereferenceable(168) %7)
  store i32 %8, ptr %5, align 4, !tbaa !220
  call void @llvm.lifetime.start.p0(i64 4, ptr %6) #17
  %9 = load ptr, ptr %4, align 8, !tbaa !218
  %10 = call noundef i32 @_ZNK11colvarvalue4typeEv(ptr noundef nonnull align 8 dereferenceable(168) %9)
  store i32 %10, ptr %6, align 4, !tbaa !220
  %11 = call noundef i32 @_ZN11colvarvalue18check_types_assignERKNS_4TypeES2_(ptr noundef nonnull align 4 dereferenceable(4) %5, ptr noundef nonnull align 4 dereferenceable(4) %6)
  call void @llvm.lifetime.end.p0(i64 4, ptr %6) #17
  call void @llvm.lifetime.end.p0(i64 4, ptr %5) #17
  %12 = load ptr, ptr %4, align 8, !tbaa !218
  %13 = call noundef i32 @_ZNK11colvarvalue4typeEv(ptr noundef nonnull align 8 dereferenceable(168) %12)
  %14 = getelementptr inbounds nuw %class.colvarvalue, ptr %7, i32 0, i32 0
  store i32 %13, ptr %14, align 8, !tbaa !221
  %15 = call noundef i32 @_ZNK11colvarvalue4typeEv(ptr noundef nonnull align 8 dereferenceable(168) %7)
  switch i32 %15, label %47 [
    i32 1, label %16
    i32 2, label %21
    i32 3, label %21
    i32 4, label %21
    i32 5, label %25
    i32 6, label %25
    i32 7, label %29
    i32 0, label %46
  ]

16:                                               ; preds = %2
  %17 = load ptr, ptr %4, align 8, !tbaa !218
  %18 = getelementptr inbounds nuw %class.colvarvalue, ptr %17, i32 0, i32 1
  %19 = load double, ptr %18, align 8, !tbaa !222
  %20 = getelementptr inbounds nuw %class.colvarvalue, ptr %7, i32 0, i32 1
  store double %19, ptr %20, align 8, !tbaa !222
  br label %48

21:                                               ; preds = %2, %2, %2
  %22 = load ptr, ptr %4, align 8, !tbaa !218
  %23 = getelementptr inbounds nuw %class.colvarvalue, ptr %22, i32 0, i32 2
  %24 = getelementptr inbounds nuw %class.colvarvalue, ptr %7, i32 0, i32 2
  call void @llvm.memcpy.p0.p0.i64(ptr align 8 %24, ptr align 8 %23, i64 24, i1 false), !tbaa.struct !114
  br label %48

25:                                               ; preds = %2, %2
  %26 = load ptr, ptr %4, align 8, !tbaa !218
  %27 = getelementptr inbounds nuw %class.colvarvalue, ptr %26, i32 0, i32 3
  %28 = getelementptr inbounds nuw %class.colvarvalue, ptr %7, i32 0, i32 3
  call void @llvm.memcpy.p0.p0.i64(ptr align 8 %28, ptr align 8 %27, i64 32, i1 false), !tbaa.struct !223
  br label %48

29:                                               ; preds = %2
  %30 = load ptr, ptr %4, align 8, !tbaa !218
  %31 = getelementptr inbounds nuw %class.colvarvalue, ptr %30, i32 0, i32 4
  %32 = getelementptr inbounds nuw %class.colvarvalue, ptr %7, i32 0, i32 4
  %33 = call noundef nonnull align 8 dereferenceable(24) ptr @_ZN12colvarmodule8vector1dIdEaSERKS1_(ptr noundef nonnull align 8 dereferenceable(24) %32, ptr noundef nonnull align 8 dereferenceable(24) %31)
  %34 = load ptr, ptr %4, align 8, !tbaa !218
  %35 = getelementptr inbounds nuw %class.colvarvalue, ptr %34, i32 0, i32 5
  %36 = getelementptr inbounds nuw %class.colvarvalue, ptr %7, i32 0, i32 5
  %37 = call noundef nonnull align 8 dereferenceable(24) ptr @_ZNSt6vectorIN11colvarvalue4TypeESaIS1_EEaSERKS3_(ptr noundef nonnull align 8 dereferenceable(24) %36, ptr noundef nonnull align 8 dereferenceable(24) %35)
  %38 = load ptr, ptr %4, align 8, !tbaa !218
  %39 = getelementptr inbounds nuw %class.colvarvalue, ptr %38, i32 0, i32 6
  %40 = getelementptr inbounds nuw %class.colvarvalue, ptr %7, i32 0, i32 6
  %41 = call noundef nonnull align 8 dereferenceable(24) ptr @_ZNSt6vectorIiSaIiEEaSERKS1_(ptr noundef nonnull align 8 dereferenceable(24) %40, ptr noundef nonnull align 8 dereferenceable(24) %39)
  %42 = load ptr, ptr %4, align 8, !tbaa !218
  %43 = getelementptr inbounds nuw %class.colvarvalue, ptr %42, i32 0, i32 7
  %44 = getelementptr inbounds nuw %class.colvarvalue, ptr %7, i32 0, i32 7
  %45 = call noundef nonnull align 8 dereferenceable(24) ptr @_ZNSt6vectorIiSaIiEEaSERKS1_(ptr noundef nonnull align 8 dereferenceable(24) %44, ptr noundef nonnull align 8 dereferenceable(24) %43)
  br label %48

46:                                               ; preds = %2
  br label %47

47:                                               ; preds = %2, %46
  call void @_ZNK11colvarvalue8undef_opEv(ptr noundef nonnull align 8 dereferenceable(168) %7)
  br label %48

48:                                               ; preds = %47, %29, %25, %21, %16
  ret ptr %7
}

; Function Attrs: mustprogress uwtable
define void @_ZN6colvar8dihedral24calc_Jacobian_derivativeEv(ptr noundef nonnull align 8 dereferenceable(1713) %0) unnamed_addr #2 align 2 personality ptr @__gxx_personality_v0 {
  %2 = alloca ptr, align 8
  %3 = alloca %class.colvarvalue, align 8
  %4 = alloca double, align 8
  %5 = alloca ptr, align 8
  %6 = alloca i32, align 4
  store ptr %0, ptr %2, align 8, !tbaa !150
  %7 = load ptr, ptr %2, align 8
  call void @llvm.lifetime.start.p0(i64 168, ptr %3) #17
  call void @llvm.lifetime.start.p0(i64 8, ptr %4) #17
  store double 0.000000e+00, ptr %4, align 8, !tbaa !95
  call void @_ZN11colvarvalueC1ERKd(ptr noundef nonnull align 8 dereferenceable(168) %3, ptr noundef nonnull align 8 dereferenceable(8) %4)
  %8 = getelementptr inbounds nuw %"class.colvar::cvc", ptr %7, i32 0, i32 14
  %9 = invoke noundef nonnull align 8 dereferenceable(168) ptr @_ZN11colvarvalueaSERKS_(ptr noundef nonnull align 8 dereferenceable(168) %8, ptr noundef nonnull align 8 dereferenceable(168) %3)
          to label %10 unwind label %11

10:                                               ; preds = %1
  call void @_ZN11colvarvalueD2Ev(ptr noundef nonnull align 8 dereferenceable(168) %3) #17
  call void @llvm.lifetime.end.p0(i64 8, ptr %4) #17
  call void @llvm.lifetime.end.p0(i64 168, ptr %3) #17
  ret void

11:                                               ; preds = %1
  %12 = landingpad { ptr, i32 }
          cleanup
  %13 = extractvalue { ptr, i32 } %12, 0
  store ptr %13, ptr %5, align 8
  %14 = extractvalue { ptr, i32 } %12, 1
  store i32 %14, ptr %6, align 4
  call void @_ZN11colvarvalueD2Ev(ptr noundef nonnull align 8 dereferenceable(168) %3) #17
  call void @llvm.lifetime.end.p0(i64 8, ptr %4) #17
  call void @llvm.lifetime.end.p0(i64 168, ptr %3) #17
  br label %15

15:                                               ; preds = %11
  %16 = load ptr, ptr %5, align 8
  %17 = load i32, ptr %6, align 4
  %18 = insertvalue { ptr, i32 } poison, ptr %16, 0
  %19 = insertvalue { ptr, i32 } %18, i32 %17, 1
  resume { ptr, i32 } %19
}