; Function Attrs: mustprogress uwtable
define void @_ZN6colvar8dihedral24calc_Jacobian_derivativeEv(ptr noundef nonnull align 8 dereferenceable(1713) %0) unnamed_addr #2 align 2 personality ptr @__gxx_personality_v0 {
  %2 = alloca i32, align 4
  %3 = alloca i32, align 4
  %4 = alloca %class.colvarvalue, align 8
  %5 = alloca double, align 8
  call void @llvm.lifetime.start.p0(i64 168, ptr nonnull %4) #24
  call void @llvm.lifetime.start.p0(i64 8, ptr nonnull %5) #24
  store double 0.000000e+00, ptr %5, align 8, !tbaa !87
  call void @_ZN11colvarvalueC1ERKd(ptr noundef nonnull align 8 dereferenceable(168) %4, ptr noundef nonnull align 8 dereferenceable(8) %5)
  %6 = getelementptr inbounds nuw i8, ptr %0, i64 1096
  call void @llvm.lifetime.start.p0(i64 4, ptr nonnull %2) #24
  %7 = load i32, ptr %6, align 8, !tbaa !126
  store i32 %7, ptr %2, align 4, !tbaa !127
  call void @llvm.lifetime.start.p0(i64 4, ptr nonnull %3) #24
  %8 = load i32, ptr %4, align 8, !tbaa !126
  store i32 %8, ptr %3, align 4, !tbaa !127
  %9 = invoke noundef i32 @_ZN11colvarvalue18check_types_assignERKNS_4TypeES2_(ptr noundef nonnull align 4 dereferenceable(4) %2, ptr noundef nonnull align 4 dereferenceable(4) %3)
          to label %.noexc unwind label %70

.noexc:                                           ; preds = %1
  call void @llvm.lifetime.end.p0(i64 4, ptr nonnull %3) #24
  call void @llvm.lifetime.end.p0(i64 4, ptr nonnull %2) #24
  %10 = load i32, ptr %4, align 8, !tbaa !126
  store i32 %10, ptr %6, align 8, !tbaa !126
  switch i32 %10, label %34 [
    i32 1, label %11
    i32 2, label %15
    i32 3, label %15
    i32 4, label %15
    i32 5, label %18
    i32 6, label %18
    i32 7, label %21
  ]

11:                                               ; preds = %.noexc
  %12 = getelementptr inbounds nuw i8, ptr %4, i64 8
  %13 = load double, ptr %12, align 8, !tbaa !128
  %14 = getelementptr inbounds nuw i8, ptr %0, i64 1104
  store double %13, ptr %14, align 8, !tbaa !128
  br label %_ZN11colvarvalueaSERKS_.exit

15:                                               ; preds = %.noexc, %.noexc, %.noexc
  %16 = getelementptr inbounds nuw i8, ptr %4, i64 16
  %17 = getelementptr inbounds nuw i8, ptr %0, i64 1112
  call void @llvm.memcpy.p0.p0.i64(ptr noundef nonnull align 8 dereferenceable(24) %17, ptr noundef nonnull align 8 dereferenceable(24) %16, i64 24, i1 false), !tbaa.struct !105
  br label %_ZN11colvarvalueaSERKS_.exit

18:                                               ; preds = %.noexc, %.noexc
  %19 = getelementptr inbounds nuw i8, ptr %4, i64 40
  %20 = getelementptr inbounds nuw i8, ptr %0, i64 1136
  call void @llvm.memcpy.p0.p0.i64(ptr noundef nonnull align 8 dereferenceable(32) %20, ptr noundef nonnull align 8 dereferenceable(32) %19, i64 32, i1 false), !tbaa.struct !129
  br label %_ZN11colvarvalueaSERKS_.exit

21:                                               ; preds = %.noexc
  %22 = getelementptr inbounds nuw i8, ptr %4, i64 72
  %23 = getelementptr inbounds nuw i8, ptr %0, i64 1168
  %24 = invoke noundef nonnull align 8 dereferenceable(24) ptr @_ZNSt6vectorIdSaIdEEaSERKS1_(ptr noundef nonnull align 8 dereferenceable(24) %23, ptr noundef nonnull align 8 dereferenceable(24) %22)
          to label %.noexc2 unwind label %70

.noexc2:                                          ; preds = %21
  %25 = getelementptr inbounds nuw i8, ptr %4, i64 96
  %26 = getelementptr inbounds nuw i8, ptr %0, i64 1192
  %27 = invoke noundef nonnull align 8 dereferenceable(24) ptr @_ZNSt6vectorIN11colvarvalue4TypeESaIS1_EEaSERKS3_(ptr noundef nonnull align 8 dereferenceable(24) %26, ptr noundef nonnull align 8 dereferenceable(24) %25)
          to label %.noexc3 unwind label %70

.noexc3:                                          ; preds = %.noexc2
  %28 = getelementptr inbounds nuw i8, ptr %4, i64 120
  %29 = getelementptr inbounds nuw i8, ptr %0, i64 1216
  %30 = invoke noundef nonnull align 8 dereferenceable(24) ptr @_ZNSt6vectorIiSaIiEEaSERKS1_(ptr noundef nonnull align 8 dereferenceable(24) %29, ptr noundef nonnull align 8 dereferenceable(24) %28)
          to label %.noexc4 unwind label %70

.noexc4:                                          ; preds = %.noexc3
  %31 = getelementptr inbounds nuw i8, ptr %4, i64 144
  %32 = getelementptr inbounds nuw i8, ptr %0, i64 1240
  %33 = invoke noundef nonnull align 8 dereferenceable(24) ptr @_ZNSt6vectorIiSaIiEEaSERKS1_(ptr noundef nonnull align 8 dereferenceable(24) %32, ptr noundef nonnull align 8 dereferenceable(24) %31)
          to label %_ZN11colvarvalueaSERKS_.exit unwind label %70

34:                                               ; preds = %.noexc
  invoke void @_ZNK11colvarvalue8undef_opEv(ptr noundef nonnull align 8 dereferenceable(168) %6)
          to label %_ZN11colvarvalueaSERKS_.exit unwind label %70

_ZN11colvarvalueaSERKS_.exit:                     ; preds = %18, %15, %11, %.noexc4, %34
  %35 = getelementptr inbounds nuw i8, ptr %4, i64 144
  %36 = load ptr, ptr %35, align 8, !tbaa !130
  %.not.i.i.i.i = icmp eq ptr %36, null
  br i1 %.not.i.i.i.i, label %_ZNSt6vectorIiSaIiEED2Ev.exit.i, label %37

37:                                               ; preds = %_ZN11colvarvalueaSERKS_.exit
  %38 = getelementptr inbounds nuw i8, ptr %4, i64 160
  %39 = load ptr, ptr %38, align 8, !tbaa !131
  %40 = ptrtoint ptr %39 to i64
  %41 = ptrtoint ptr %36 to i64
  %42 = sub i64 %40, %41
  call void @_ZdlPvm(ptr noundef nonnull %36, i64 noundef %42) #25
  br label %_ZNSt6vectorIiSaIiEED2Ev.exit.i

_ZNSt6vectorIiSaIiEED2Ev.exit.i:                  ; preds = %37, %_ZN11colvarvalueaSERKS_.exit
  %43 = getelementptr inbounds nuw i8, ptr %4, i64 120
  %44 = load ptr, ptr %43, align 8, !tbaa !130
  %.not.i.i.i1.i = icmp eq ptr %44, null
  br i1 %.not.i.i.i1.i, label %_ZNSt6vectorIiSaIiEED2Ev.exit2.i, label %45

45:                                               ; preds = %_ZNSt6vectorIiSaIiEED2Ev.exit.i
  %46 = getelementptr inbounds nuw i8, ptr %4, i64 136
  %47 = load ptr, ptr %46, align 8, !tbaa !131
  %48 = ptrtoint ptr %47 to i64
  %49 = ptrtoint ptr %44 to i64
  %50 = sub i64 %48, %49
  call void @_ZdlPvm(ptr noundef nonnull %44, i64 noundef %50) #25
  br label %_ZNSt6vectorIiSaIiEED2Ev.exit2.i

_ZNSt6vectorIiSaIiEED2Ev.exit2.i:                 ; preds = %45, %_ZNSt6vectorIiSaIiEED2Ev.exit.i
  %51 = getelementptr inbounds nuw i8, ptr %4, i64 96
  %52 = load ptr, ptr %51, align 8, !tbaa !132
  %.not.i.i.i3.i = icmp eq ptr %52, null
  br i1 %.not.i.i.i3.i, label %_ZNSt6vectorIN11colvarvalue4TypeESaIS1_EED2Ev.exit.i, label %53

53:                                               ; preds = %_ZNSt6vectorIiSaIiEED2Ev.exit2.i
  %54 = getelementptr inbounds nuw i8, ptr %4, i64 112
  %55 = load ptr, ptr %54, align 8, !tbaa !133
  %56 = ptrtoint ptr %55 to i64
  %57 = ptrtoint ptr %52 to i64
  %58 = sub i64 %56, %57
  call void @_ZdlPvm(ptr noundef nonnull %52, i64 noundef %58) #25
  br label %_ZNSt6vectorIN11colvarvalue4TypeESaIS1_EED2Ev.exit.i

_ZNSt6vectorIN11colvarvalue4TypeESaIS1_EED2Ev.exit.i: ; preds = %53, %_ZNSt6vectorIiSaIiEED2Ev.exit2.i
  %59 = getelementptr inbounds nuw i8, ptr %4, i64 72
  %60 = load ptr, ptr %59, align 8, !tbaa !134
  %61 = getelementptr inbounds nuw i8, ptr %4, i64 80
  %62 = load ptr, ptr %61, align 8, !tbaa !135
  %.not.i.i.i4.i = icmp eq ptr %62, %60
  br i1 %.not.i.i.i4.i, label %_ZNSt6vectorIdSaIdEE5clearEv.exit.i.i, label %63

63:                                               ; preds = %_ZNSt6vectorIN11colvarvalue4TypeESaIS1_EED2Ev.exit.i
  store ptr %60, ptr %61, align 8, !tbaa !135
  br label %_ZNSt6vectorIdSaIdEE5clearEv.exit.i.i

_ZNSt6vectorIdSaIdEE5clearEv.exit.i.i:            ; preds = %63, %_ZNSt6vectorIN11colvarvalue4TypeESaIS1_EED2Ev.exit.i
  %.not.i.i.i.i.i = icmp eq ptr %60, null
  br i1 %.not.i.i.i.i.i, label %_ZN11colvarvalueD2Ev.exit, label %64

64:                                               ; preds = %_ZNSt6vectorIdSaIdEE5clearEv.exit.i.i
  %65 = getelementptr inbounds nuw i8, ptr %4, i64 88
  %66 = load ptr, ptr %65, align 8, !tbaa !136
  %67 = ptrtoint ptr %66 to i64
  %68 = ptrtoint ptr %60 to i64
  %69 = sub i64 %67, %68
  call void @_ZdlPvm(ptr noundef nonnull %60, i64 noundef %69) #25
  br label %_ZN11colvarvalueD2Ev.exit

_ZN11colvarvalueD2Ev.exit:                        ; preds = %_ZNSt6vectorIdSaIdEE5clearEv.exit.i.i, %64
  call void @llvm.lifetime.end.p0(i64 8, ptr nonnull %5) #24
  call void @llvm.lifetime.end.p0(i64 168, ptr nonnull %4) #24
  ret void

70:                                               ; preds = %34, %.noexc4, %.noexc3, %.noexc2, %21, %1
  %71 = landingpad { ptr, i32 }
          cleanup
  call void @_ZN11colvarvalueD2Ev(ptr noundef nonnull align 8 dereferenceable(168) %4) #24
  call void @llvm.lifetime.end.p0(i64 8, ptr nonnull %5) #24
  call void @llvm.lifetime.end.p0(i64 168, ptr nonnull %4) #24
  resume { ptr, i32 } %71
}